; ModuleID = '48/1530.c'
source_filename = "48/1530.c"
target datalayout = "e-m:e-p270:32:32-p271:32:32-p272:64:64-i64:64-f80:128-n8:16:32:64-S128"
target triple = "x86_64-pc-linux-gnu"

@.str = private unnamed_addr constant [6 x i8] c"%d %d\00", align 1
@.str.1 = private unnamed_addr constant [4 x i8] c"%d \00", align 1
@.str.2 = private unnamed_addr constant [4 x i8] c"%d\0A\00", align 1

; Function Attrs: noinline nounwind uwtable
define dso_local i32 @main() #0 {
  %1 = alloca i32, align 4
  %2 = alloca [100 x [100 x i32]], align 16
  %3 = alloca [100 x [100 x i32]], align 16
  %4 = alloca i32, align 4
  %5 = alloca i32, align 4
  %6 = alloca i32, align 4
  %7 = alloca i32, align 4
  %8 = alloca i32, align 4
  %9 = alloca i32, align 4
  %10 = alloca i32, align 4
  store i32 0, i32* %1, align 4
  %11 = call i32 (i8*, ...) @__isoc99_scanf(i8* getelementptr inbounds ([6 x i8], [6 x i8]* @.str, i64 0, i64 0), i32* %4, i32* %5)
  %12 = getelementptr inbounds [100 x [100 x i32]], [100 x [100 x i32]]* %2, i64 0, i64 0
  %13 = bitcast [100 x i32]* %12 to i8*
  call void @llvm.memset.p0i8.i64(i8* align 16 %13, i8 0, i64 40000, i1 false)
  %14 = load i32, i32* %4, align 4
  %15 = getelementptr inbounds [100 x [100 x i32]], [100 x [100 x i32]]* %2, i64 0, i64 4
  %16 = getelementptr inbounds [100 x i32], [100 x i32]* %15, i64 0, i64 4
  store i32 %14, i32* %16, align 16
  store i32 1, i32* %6, align 4
  br label %17

17:                                               ; preds = %104, %0
  %18 = load i32, i32* %6, align 4
  %19 = load i32, i32* %5, align 4
  %20 = icmp sle i32 %18, %19
  br i1 %20, label %21, label %107

21:                                               ; preds = %17
  %22 = getelementptr inbounds [100 x [100 x i32]], [100 x [100 x i32]]* %3, i64 0, i64 0
  %23 = bitcast [100 x i32]* %22 to i8*
  call void @llvm.memset.p0i8.i64(i8* align 16 %23, i8 0, i64 40000, i1 false)
  store i32 1, i32* %7, align 4
  br label %24

24:                                               ; preds = %96, %21
  %25 = load i32, i32* %7, align 4
  %26 = icmp slt i32 %25, 99
  br i1 %26, label %27, label %99

27:                                               ; preds = %24
  store i32 1, i32* %8, align 4
  br label %28

28:                                               ; preds = %92, %27
  %29 = load i32, i32* %8, align 4
  %30 = icmp slt i32 %29, 99
  br i1 %30, label %31, label %95

31:                                               ; preds = %28
  %32 = load i32, i32* %7, align 4
  %33 = sext i32 %32 to i64
  %34 = getelementptr inbounds [100 x [100 x i32]], [100 x [100 x i32]]* %2, i64 0, i64 %33
  %35 = load i32, i32* %8, align 4
  %36 = sext i32 %35 to i64
  %37 = getelementptr inbounds [100 x i32], [100 x i32]* %34, i64 0, i64 %36
  %38 = load i32, i32* %37, align 4
  %39 = load i32, i32* %7, align 4
  %40 = sext i32 %39 to i64
  %41 = getelementptr inbounds [100 x [100 x i32]], [100 x [100 x i32]]* %3, i64 0, i64 %40
  %42 = load i32, i32* %8, align 4
  %43 = sext i32 %42 to i64
  %44 = getelementptr inbounds [100 x i32], [100 x i32]* %41, i64 0, i64 %43
  %45 = load i32, i32* %44, align 4
  %46 = add nsw i32 %45, %38
  store i32 %46, i32* %44, align 4
  store i32 -1, i32* %9, align 4
  br label %47

47:                                               ; preds = %88, %31
  %48 = load i32, i32* %9, align 4
  %49 = icmp sle i32 %48, 1
  br i1 %49, label %50, label %91

50:                                               ; preds = %47
  store i32 -1, i32* %10, align 4
  br label %51

51:                                               ; preds = %84, %50
  %52 = load i32, i32* %10, align 4
  %53 = icmp sle i32 %52, 1
  br i1 %53, label %54, label %87

54:                                               ; preds = %51
  %55 = load i32, i32* %7, align 4
  %56 = load i32, i32* %10, align 4
  %57 = add nsw i32 %55, %56
  %58 = sext i32 %57 to i64
  %59 = getelementptr inbounds [100 x [100 x i32]], [100 x [100 x i32]]* %3, i64 0, i64 %58
  %60 = load i32, i32* %8, align 4
  %61 = load i32, i32* %9, align 4
  %62 = add nsw i32 %60, %61
  %63 = sext i32 %62 to i64
  %64 = getelementptr inbounds [100 x i32], [100 x i32]* %59, i64 0, i64 %63
  %65 = load i32, i32* %64, align 4
  %66 = load i32, i32* %7, align 4
  %67 = sext i32 %66 to i64
  %68 = getelementptr inbounds [100 x [100 x i32]], [100 x [100 x i32]]* %2, i64 0, i64 %67
  %69 = load i32, i32* %8, align 4
  %70 = sext i32 %69 to i64
  %71 = getelementptr inbounds [100 x i32], [100 x i32]* %68, i64 0, i64 %70
  %72 = load i32, i32* %71, align 4
  %73 = add nsw i32 %65, %72
  %74 = load i32, i32* %7, align 4
  %75 = load i32, i32* %10, align 4
  %76 = add nsw i32 %74, %75
  %77 = sext i32 %76 to i64
  %78 = getelementptr inbounds [100 x [100 x i32]], [100 x [100 x i32]]* %3, i64 0, i64 %77
  %79 = load i32, i32* %8, align 4
  %80 = load i32, i32* %9, align 4
  %81 = add nsw i32 %79, %80
  %82 = sext i32 %81 to i64
  %83 = getelementptr inbounds [100 x i32], [100 x i32]* %78, i64 0, i64 %82
  store i32 %73, i32* %83, align 4
  br label %84

84:                                               ; preds = %54
  %85 = load i32, i32* %10, align 4
  %86 = add nsw i32 %85, 1
  store i32 %86, i32* %10, align 4
  br label %51

87:                                               ; preds = %51
  br label %88

88:                                               ; preds = %87
  %89 = load i32, i32* %9, align 4
  %90 = add nsw i32 %89, 1
  store i32 %90, i32* %9, align 4
  br label %47

91:                                               ; preds = %47
  br label %92

92:                                               ; preds = %91
  %93 = load i32, i32* %8, align 4
  %94 = add nsw i32 %93, 1
  store i32 %94, i32* %8, align 4
  br label %28

95:                                               ; preds = %28
  br label %96

96:                                               ; preds = %95
  %97 = load i32, i32* %7, align 4
  %98 = add nsw i32 %97, 1
  store i32 %98, i32* %7, align 4
  br label %24

99:                                               ; preds = %24
  %100 = getelementptr inbounds [100 x [100 x i32]], [100 x [100 x i32]]* %2, i64 0, i64 0
  %101 = bitcast [100 x i32]* %100 to i8*
  %102 = getelementptr inbounds [100 x [100 x i32]], [100 x [100 x i32]]* %3, i64 0, i64 0
  %103 = bitcast [100 x i32]* %102 to i8*
  call void @llvm.memcpy.p0i8.p0i8.i64(i8* align 16 %101, i8* align 16 %103, i64 40000, i1 false)
  br label %104

104:                                              ; preds = %99
  %105 = load i32, i32* %6, align 4
  %106 = add nsw i32 %105, 1
  store i32 %106, i32* %6, align 4
  br label %17

107:                                              ; preds = %17
  store i32 0, i32* %7, align 4
  br label %108

108:                                              ; preds = %134, %107
  %109 = load i32, i32* %7, align 4
  %110 = icmp slt i32 %109, 100
  br i1 %110, label %111, label %137

111:                                              ; preds = %108
  store i32 0, i32* %8, align 4
  br label %112

112:                                              ; preds = %124, %111
  %113 = load i32, i32* %8, align 4
  %114 = icmp slt i32 %113, 99
  br i1 %114, label %115, label %127

115:                                              ; preds = %112
  %116 = load i32, i32* %7, align 4
  %117 = sext i32 %116 to i64
  %118 = getelementptr inbounds [100 x [100 x i32]], [100 x [100 x i32]]* %2, i64 0, i64 %117
  %119 = load i32, i32* %8, align 4
  %120 = sext i32 %119 to i64
  %121 = getelementptr inbounds [100 x i32], [100 x i32]* %118, i64 0, i64 %120
  %122 = load i32, i32* %121, align 4
  %123 = call i32 (i8*, ...) @printf(i8* getelementptr inbounds ([4 x i8], [4 x i8]* @.str.1, i64 0, i64 0), i32 %122)
  br label %124

124:                                              ; preds = %115
  %125 = load i32, i32* %8, align 4
  %126 = add nsw i32 %125, 1
  store i32 %126, i32* %8, align 4
  br label %112

127:                                              ; preds = %112
  %128 = load i32, i32* %7, align 4
  %129 = sext i32 %128 to i64
  %130 = getelementptr inbounds [100 x [100 x i32]], [100 x [100 x i32]]* %2, i64 0, i64 %129
  %131 = getelementptr inbounds [100 x i32], [100 x i32]* %130, i64 0, i64 8
  %132 = load i32, i32* %131, align 16
  %133 = call i32 (i8*, ...) @printf(i8* getelementptr inbounds ([4 x i8], [4 x i8]* @.str.2, i64 0, i64 0), i32 %132)
  br label %134

134:                                              ; preds = %127
  %135 = load i32, i32* %7, align 4
  %136 = add nsw i32 %135, 1
  store i32 %136, i32* %7, align 4
  br label %108

137:                                              ; preds = %108
  %138 = call i32 @getchar()
  %139 = call i32 @getchar()
  %140 = call i32 @getchar()
  %141 = call i32 @getchar()
  %142 = load i32, i32* %1, align 4
  ret i32 %142
}

declare dso_local i32 @__isoc99_scanf(i8*, ...) #1

; Function Attrs: argmemonly nounwind willreturn
declare void @llvm.memset.p0i8.i64(i8* nocapture writeonly, i8, i64, i1 immarg) #2

; Function Attrs: argmemonly nounwind willreturn
declare void @llvm.memcpy.p0i8.p0i8.i64(i8* noalias nocapture writeonly, i8* noalias nocapture readonly, i64, i1 immarg) #2

declare dso_local i32 @printf(i8*, ...) #1

declare dso_local i32 @getchar() #1


!llvm.module.flags = !{!0}
!llvm.ident = !{!1}

!0 = !{i32 1, !"wchar_size", i32 4}
!1 = !{!"clang version 10.0.0-4ubuntu1 "}
