; ModuleID = 'source-C-CXX/47/1530.c'
source_filename = "source-C-CXX/47/1530.c"
target datalayout = "e-m:e-p270:32:32-p271:32:32-p272:64:64-i64:64-f80:128-n8:16:32:64-S128"
target triple = "x86_64-pc-linux-gnu"

%struct._IO_FILE = type { i32, i8*, i8*, i8*, i8*, i8*, i8*, i8*, i8*, i8*, i8*, i8*, %struct._IO_marker*, %struct._IO_FILE*, i32, i32, i64, i16, i8, [1 x i8], i8*, i64, %struct._IO_codecvt*, %struct._IO_wide_data*, %struct._IO_FILE*, i8*, i64, i32, [20 x i8] }
%struct._IO_marker = type opaque
%struct._IO_codecvt = type opaque
%struct._IO_wide_data = type opaque

@.str = private unnamed_addr constant [6 x i8] c"%d %d\00", align 1
@.str.1 = private unnamed_addr constant [4 x i8] c"%d \00", align 1
@.str.2 = private unnamed_addr constant [4 x i8] c"%d\0A\00", align 1
@stdin = external local_unnamed_addr global %struct._IO_FILE*, align 8

; Function Attrs: nofree nounwind sspstrong uwtable
define dso_local i32 @main() local_unnamed_addr #0 {
  %1 = alloca [100 x [100 x i32]], align 16
  %2 = alloca [100 x [100 x i32]], align 16
  %3 = alloca i32, align 4
  %4 = alloca i32, align 4
  %5 = bitcast [100 x [100 x i32]]* %1 to i8*
  call void @llvm.lifetime.start.p0i8(i64 40000, i8* nonnull %5) #5
  %6 = bitcast [100 x [100 x i32]]* %2 to i8*
  call void @llvm.lifetime.start.p0i8(i64 40000, i8* nonnull %6) #5
  %7 = bitcast i32* %3 to i8*
  call void @llvm.lifetime.start.p0i8(i64 4, i8* nonnull %7) #5
  %8 = bitcast i32* %4 to i8*
  call void @llvm.lifetime.start.p0i8(i64 4, i8* nonnull %8) #5
  %9 = call i32 (i8*, ...) @__isoc99_scanf(i8* getelementptr inbounds ([6 x i8], [6 x i8]* @.str, i64 0, i64 0), i32* nonnull %3, i32* nonnull %4)
  call void @llvm.memset.p0i8.i64(i8* noundef nonnull align 16 dereferenceable(40000) %5, i8 0, i64 40000, i1 false)
  %10 = load i32, i32* %3, align 4, !tbaa !5
  %11 = getelementptr inbounds [100 x [100 x i32]], [100 x [100 x i32]]* %1, i64 0, i64 4, i64 4
  store i32 %10, i32* %11, align 16, !tbaa !5
  %12 = load i32, i32* %4, align 4, !tbaa !5
  %13 = icmp slt i32 %12, 1
  br i1 %13, label %63, label %14

14:                                               ; preds = %0, %60
  %15 = phi i32 [ %61, %60 ], [ 1, %0 ]
  call void @llvm.memset.p0i8.i64(i8* noundef nonnull align 16 dereferenceable(40000) %6, i8 0, i64 40000, i1 false)
  br label %16

16:                                               ; preds = %14, %58
  %17 = phi i64 [ 1, %14 ], [ %21, %58 ]
  %18 = add nsw i64 %17, -1
  %19 = getelementptr inbounds [100 x [100 x i32]], [100 x [100 x i32]]* %2, i64 0, i64 %17, i64 1
  %20 = load i32, i32* %19, align 4, !tbaa !5
  %21 = add nuw nsw i64 %17, 1
  br label %22

22:                                               ; preds = %16, %22
  %23 = phi i32 [ %20, %16 ], [ %53, %22 ]
  %24 = phi i64 [ 1, %16 ], [ %47, %22 ]
  %25 = getelementptr inbounds [100 x [100 x i32]], [100 x [100 x i32]]* %1, i64 0, i64 %17, i64 %24
  %26 = load i32, i32* %25, align 4, !tbaa !5
  %27 = getelementptr inbounds [100 x [100 x i32]], [100 x [100 x i32]]* %2, i64 0, i64 %17, i64 %24
  %28 = add nsw i32 %23, %26
  store i32 %28, i32* %27, align 4, !tbaa !5
  %29 = add nsw i64 %24, -1
  %30 = getelementptr inbounds [100 x [100 x i32]], [100 x [100 x i32]]* %2, i64 0, i64 %18, i64 %29
  %31 = load i32, i32* %30, align 4, !tbaa !5
  %32 = add nsw i32 %31, %26
  store i32 %32, i32* %30, align 4, !tbaa !5
  %33 = getelementptr inbounds [100 x [100 x i32]], [100 x [100 x i32]]* %2, i64 0, i64 %17, i64 %29
  %34 = load i32, i32* %33, align 4, !tbaa !5
  %35 = add nsw i32 %34, %26
  store i32 %35, i32* %33, align 4, !tbaa !5
  %36 = getelementptr inbounds [100 x [100 x i32]], [100 x [100 x i32]]* %2, i64 0, i64 %21, i64 %29
  %37 = load i32, i32* %36, align 4, !tbaa !5
  %38 = add nsw i32 %37, %26
  store i32 %38, i32* %36, align 4, !tbaa !5
  %39 = getelementptr inbounds [100 x [100 x i32]], [100 x [100 x i32]]* %2, i64 0, i64 %18, i64 %24
  %40 = load i32, i32* %39, align 4, !tbaa !5
  %41 = add nsw i32 %40, %26
  store i32 %41, i32* %39, align 4, !tbaa !5
  %42 = load i32, i32* %27, align 4, !tbaa !5
  %43 = add nsw i32 %42, %26
  store i32 %43, i32* %27, align 4, !tbaa !5
  %44 = getelementptr inbounds [100 x [100 x i32]], [100 x [100 x i32]]* %2, i64 0, i64 %21, i64 %24
  %45 = load i32, i32* %44, align 4, !tbaa !5
  %46 = add nsw i32 %45, %26
  store i32 %46, i32* %44, align 4, !tbaa !5
  %47 = add nuw nsw i64 %24, 1
  %48 = getelementptr inbounds [100 x [100 x i32]], [100 x [100 x i32]]* %2, i64 0, i64 %18, i64 %47
  %49 = load i32, i32* %48, align 4, !tbaa !5
  %50 = add nsw i32 %49, %26
  store i32 %50, i32* %48, align 4, !tbaa !5
  %51 = getelementptr inbounds [100 x [100 x i32]], [100 x [100 x i32]]* %2, i64 0, i64 %17, i64 %47
  %52 = load i32, i32* %51, align 4, !tbaa !5
  %53 = add nsw i32 %52, %26
  store i32 %53, i32* %51, align 4, !tbaa !5
  %54 = getelementptr inbounds [100 x [100 x i32]], [100 x [100 x i32]]* %2, i64 0, i64 %21, i64 %47
  %55 = load i32, i32* %54, align 4, !tbaa !5
  %56 = add nsw i32 %55, %26
  store i32 %56, i32* %54, align 4, !tbaa !5
  %57 = icmp eq i64 %47, 99
  br i1 %57, label %58, label %22, !llvm.loop !9

58:                                               ; preds = %22
  %59 = icmp eq i64 %21, 99
  br i1 %59, label %60, label %16, !llvm.loop !11

60:                                               ; preds = %58
  call void @llvm.memcpy.p0i8.p0i8.i64(i8* noundef nonnull align 16 dereferenceable(40000) %5, i8* noundef nonnull align 16 dereferenceable(40000) %6, i64 40000, i1 false)
  %61 = add nuw i32 %15, 1
  %62 = icmp eq i32 %15, %12
  br i1 %62, label %63, label %14, !llvm.loop !12

63:                                               ; preds = %60, %0
  br label %64

64:                                               ; preds = %63, %73
  %65 = phi i64 [ %77, %73 ], [ 0, %63 ]
  br label %66

66:                                               ; preds = %64, %66
  %67 = phi i64 [ 0, %64 ], [ %71, %66 ]
  %68 = getelementptr inbounds [100 x [100 x i32]], [100 x [100 x i32]]* %1, i64 0, i64 %65, i64 %67
  %69 = load i32, i32* %68, align 4, !tbaa !5
  %70 = call i32 (i8*, ...) @printf(i8* nonnull dereferenceable(1) getelementptr inbounds ([4 x i8], [4 x i8]* @.str.1, i64 0, i64 0), i32 %69)
  %71 = add nuw nsw i64 %67, 1
  %72 = icmp eq i64 %71, 99
  br i1 %72, label %73, label %66, !llvm.loop !13

73:                                               ; preds = %66
  %74 = getelementptr inbounds [100 x [100 x i32]], [100 x [100 x i32]]* %1, i64 0, i64 %65, i64 8
  %75 = load i32, i32* %74, align 16, !tbaa !5
  %76 = call i32 (i8*, ...) @printf(i8* nonnull dereferenceable(1) getelementptr inbounds ([4 x i8], [4 x i8]* @.str.2, i64 0, i64 0), i32 %75)
  %77 = add nuw nsw i64 %65, 1
  %78 = icmp eq i64 %77, 100
  br i1 %78, label %79, label %64, !llvm.loop !14

79:                                               ; preds = %73
  %80 = load %struct._IO_FILE*, %struct._IO_FILE** @stdin, align 8, !tbaa !15
  %81 = call i32 @getc(%struct._IO_FILE* %80) #5
  %82 = load %struct._IO_FILE*, %struct._IO_FILE** @stdin, align 8, !tbaa !15
  %83 = call i32 @getc(%struct._IO_FILE* %82) #5
  %84 = load %struct._IO_FILE*, %struct._IO_FILE** @stdin, align 8, !tbaa !15
  %85 = call i32 @getc(%struct._IO_FILE* %84) #5
  %86 = load %struct._IO_FILE*, %struct._IO_FILE** @stdin, align 8, !tbaa !15
  %87 = call i32 @getc(%struct._IO_FILE* %86) #5
  call void @llvm.lifetime.end.p0i8(i64 4, i8* nonnull %8) #5
  call void @llvm.lifetime.end.p0i8(i64 4, i8* nonnull %7) #5
  call void @llvm.lifetime.end.p0i8(i64 40000, i8* nonnull %6) #5
  call void @llvm.lifetime.end.p0i8(i64 40000, i8* nonnull %5) #5
  ret i32 0
}

; Function Attrs: argmemonly mustprogress nofree nosync nounwind willreturn
declare void @llvm.lifetime.start.p0i8(i64 immarg, i8* nocapture) #1

; Function Attrs: nofree nounwind
declare noundef i32 @__isoc99_scanf(i8* nocapture noundef readonly, ...) local_unnamed_addr #2

; Function Attrs: argmemonly mustprogress nofree nounwind willreturn writeonly
declare void @llvm.memset.p0i8.i64(i8* nocapture writeonly, i8, i64, i1 immarg) #3

; Function Attrs: argmemonly mustprogress nofree nounwind willreturn
declare void @llvm.memcpy.p0i8.p0i8.i64(i8* noalias nocapture writeonly, i8* noalias nocapture readonly, i64, i1 immarg) #4

; Function Attrs: nofree nounwind
declare noundef i32 @printf(i8* nocapture noundef readonly, ...) local_unnamed_addr #2

; Function Attrs: argmemonly mustprogress nofree nosync nounwind willreturn
declare void @llvm.lifetime.end.p0i8(i64 immarg, i8* nocapture) #1

; Function Attrs: nofree nounwind
declare noundef i32 @getc(%struct._IO_FILE* nocapture noundef) local_unnamed_addr #2


!llvm.module.flags = !{!0, !1, !2, !3}
!llvm.ident = !{!4}

!0 = !{i32 1, !"wchar_size", i32 4}
!1 = !{i32 7, !"PIC Level", i32 2}
!2 = !{i32 7, !"PIE Level", i32 2}
!3 = !{i32 7, !"uwtable", i32 1}
!4 = !{!"clang version 13.0.0"}
!5 = !{!6, !6, i64 0}
!6 = !{!"int", !7, i64 0}
!7 = !{!"omnipotent char", !8, i64 0}
!8 = !{!"Simple C/C++ TBAA"}
!9 = distinct !{!9, !10}
!10 = !{!"llvm.loop.mustprogress"}
!11 = distinct !{!11, !10}
!12 = distinct !{!12, !10}
!13 = distinct !{!13, !10}
!14 = distinct !{!14, !10}
!15 = !{!16, !16, i64 0}
!16 = !{!"any pointer", !7, i64 0}
